; Function Attrs: mustprogress uwtable
define hidden void @_ZN11th_rewriterclEP4exprR7obj_refIS0_11ast_managerERS2_I3appS3_E(ptr nocapture noundef nonnull readonly align 8 dereferenceable(16) %this, ptr noundef %t, ptr noundef nonnull align 8 dereferenceable(16) %result, ptr noundef nonnull align 8 dereferenceable(16) %result_pr) local_unnamed_addr #3 align 2 personality ptr @__gxx_personality_v0 {
entry:
  %0 = load ptr, ptr %this, align 8
  invoke fastcc void @_ZN12rewriter_tplIN12_GLOBAL__N_115th_rewriter_cfgEEclEP4exprR7obj_refIS3_11ast_managerERS5_I3appS6_E(ptr noundef nonnull align 8 dereferenceable(536) %0, ptr noundef %t, ptr noundef nonnull align 8 dereferenceable(16) %result, ptr noundef nonnull align 8 dereferenceable(16) %result_pr)
          to label %try.cont unwind label %lpad

lpad:                                             ; preds = %entry
  %1 = landingpad { ptr, i32 }
          catch ptr null
  %2 = extractvalue { ptr, i32 } %1, 0
  %3 = tail call ptr @__cxa_begin_catch(ptr %2) #18
  %call = invoke noundef nonnull align 8 dereferenceable(16) ptr @_ZN7obj_refI4expr11ast_managerEaSEPS0_(ptr noundef nonnull align 8 dereferenceable(16) %result, ptr noundef %t)
          to label %invoke.cont3 unwind label %lpad2

invoke.cont3:                                     ; preds = %lpad
  %call5 = invoke noundef nonnull align 8 dereferenceable(16) ptr @_ZN7obj_refI3app11ast_managerEaSEPS0_(ptr noundef nonnull align 8 dereferenceable(16) %result_pr, ptr noundef null)
          to label %invoke.cont4 unwind label %lpad2

invoke.cont4:                                     ; preds = %invoke.cont3
  %m_manager.i = getelementptr inbounds i8, ptr %result, i64 8
  %4 = load ptr, ptr %m_manager.i, align 8
  %call2.i5 = invoke noundef zeroext i1 @_ZN8reslimit3incEv(ptr noundef nonnull align 8 dereferenceable(40) %4)
          to label %invoke.cont8 unwind label %lpad2

invoke.cont8:                                     ; preds = %invoke.cont4
  br i1 %call2.i5, label %if.end, label %if.then

if.then:                                          ; preds = %invoke.cont8
  tail call void @__cxa_end_catch()
  br label %try.cont

lpad2:                                            ; preds = %invoke.cont4, %if.end, %invoke.cont3, %lpad
  %5 = landingpad { ptr, i32 }
          cleanup
  invoke void @__cxa_end_catch()
          to label %eh.resume unwind label %terminate.lpad

if.end:                                           ; preds = %invoke.cont8
  invoke void @__cxa_rethrow() #20
          to label %unreachable unwind label %lpad2

try.cont:                                         ; preds = %entry, %if.then
  ret void

eh.resume:                                        ; preds = %lpad2
  resume { ptr, i32 } %5

terminate.lpad:                                   ; preds = %lpad2
  %6 = landingpad { ptr, i32 }
          catch ptr null
  %7 = extractvalue { ptr, i32 } %6, 0
  tail call void @__clang_call_terminate(ptr %7) #19
  unreachable

unreachable:                                      ; preds = %if.end
  unreachable
}